; ModuleID = '13/703.c'
source_filename = "13/703.c"
target datalayout = "e-m:e-p270:32:32-p271:32:32-p272:64:64-i64:64-f80:128-n8:16:32:64-S128"
target triple = "x86_64-pc-linux-gnu"

@.str = private unnamed_addr constant [3 x i8] c"%d\00", align 1
@.str.1 = private unnamed_addr constant [4 x i8] c" %d\00", align 1

; Function Attrs: noinline nounwind uwtable
define dso_local i32 @main() #0 {
  %1 = alloca i32, align 4
  %2 = alloca i32, align 4
  %3 = alloca i32, align 4
  %4 = alloca i32, align 4
  %5 = alloca i8*, align 8
  %6 = alloca i64, align 8
  store i32 0, i32* %1, align 4
  %7 = call i32 (i8*, ...) @__isoc99_scanf(i8* getelementptr inbounds ([3 x i8], [3 x i8]* @.str, i64 0, i64 0), i32* %2)
  %8 = load i32, i32* %2, align 4
  %9 = zext i32 %8 to i64
  %10 = call i8* @llvm.stacksave()
  store i8* %10, i8** %5, align 8
  %11 = alloca i32, i64 %9, align 16
  store i64 %9, i64* %6, align 8
  store i32 0, i32* %3, align 4
  br label %12

12:                                               ; preds = %21, %0
  %13 = load i32, i32* %3, align 4
  %14 = load i32, i32* %2, align 4
  %15 = icmp slt i32 %13, %14
  br i1 %15, label %16, label %24

16:                                               ; preds = %12
  %17 = load i32, i32* %3, align 4
  %18 = sext i32 %17 to i64
  %19 = getelementptr inbounds i32, i32* %11, i64 %18
  %20 = call i32 (i8*, ...) @__isoc99_scanf(i8* getelementptr inbounds ([3 x i8], [3 x i8]* @.str, i64 0, i64 0), i32* %19)
  br label %21

21:                                               ; preds = %16
  %22 = load i32, i32* %3, align 4
  %23 = add nsw i32 %22, 1
  store i32 %23, i32* %3, align 4
  br label %12

24:                                               ; preds = %12
  %25 = load i32, i32* %2, align 4
  %26 = icmp eq i32 %25, 1
  br i1 %26, label %27, label %31

27:                                               ; preds = %24
  %28 = getelementptr inbounds i32, i32* %11, i64 0
  %29 = load i32, i32* %28, align 16
  %30 = call i32 (i8*, ...) @printf(i8* getelementptr inbounds ([3 x i8], [3 x i8]* @.str, i64 0, i64 0), i32 %29)
  br label %132

31:                                               ; preds = %24
  %32 = getelementptr inbounds i32, i32* %11, i64 0
  %33 = load i32, i32* %32, align 16
  %34 = call i32 (i8*, ...) @printf(i8* getelementptr inbounds ([3 x i8], [3 x i8]* @.str, i64 0, i64 0), i32 %33)
  store i32 1, i32* %3, align 4
  br label %35

35:                                               ; preds = %82, %31
  %36 = load i32, i32* %3, align 4
  %37 = load i32, i32* %2, align 4
  %38 = sub nsw i32 %37, 1
  %39 = icmp slt i32 %36, %38
  br i1 %39, label %40, label %85

40:                                               ; preds = %35
  store i32 0, i32* %4, align 4
  br label %41

41:                                               ; preds = %57, %40
  %42 = load i32, i32* %4, align 4
  %43 = load i32, i32* %3, align 4
  %44 = icmp slt i32 %42, %43
  br i1 %44, label %45, label %60

45:                                               ; preds = %41
  %46 = load i32, i32* %3, align 4
  %47 = sext i32 %46 to i64
  %48 = getelementptr inbounds i32, i32* %11, i64 %47
  %49 = load i32, i32* %48, align 4
  %50 = load i32, i32* %4, align 4
  %51 = sext i32 %50 to i64
  %52 = getelementptr inbounds i32, i32* %11, i64 %51
  %53 = load i32, i32* %52, align 4
  %54 = icmp eq i32 %49, %53
  br i1 %54, label %55, label %56

55:                                               ; preds = %45
  br label %60

56:                                               ; preds = %45
  br label %57

57:                                               ; preds = %56
  %58 = load i32, i32* %4, align 4
  %59 = add nsw i32 %58, 1
  store i32 %59, i32* %4, align 4
  br label %41

60:                                               ; preds = %55, %41
  %61 = load i32, i32* %3, align 4
  %62 = load i32, i32* %4, align 4
  %63 = icmp eq i32 %61, %62
  br i1 %63, label %64, label %81

64:                                               ; preds = %60
  %65 = load i32, i32* %3, align 4
  %66 = sext i32 %65 to i64
  %67 = getelementptr inbounds i32, i32* %11, i64 %66
  %68 = load i32, i32* %67, align 4
  %69 = load i32, i32* %3, align 4
  %70 = sub nsw i32 %69, 1
  %71 = sext i32 %70 to i64
  %72 = getelementptr inbounds i32, i32* %11, i64 %71
  %73 = load i32, i32* %72, align 4
  %74 = icmp ne i32 %68, %73
  br i1 %74, label %75, label %81

75:                                               ; preds = %64
  %76 = load i32, i32* %3, align 4
  %77 = sext i32 %76 to i64
  %78 = getelementptr inbounds i32, i32* %11, i64 %77
  %79 = load i32, i32* %78, align 4
  %80 = call i32 (i8*, ...) @printf(i8* getelementptr inbounds ([4 x i8], [4 x i8]* @.str.1, i64 0, i64 0), i32 %79)
  br label %81

81:                                               ; preds = %75, %64, %60
  br label %82

82:                                               ; preds = %81
  %83 = load i32, i32* %3, align 4
  %84 = add nsw i32 %83, 1
  store i32 %84, i32* %3, align 4
  br label %35

85:                                               ; preds = %35
  store i32 0, i32* %4, align 4
  br label %86

86:                                               ; preds = %104, %85
  %87 = load i32, i32* %4, align 4
  %88 = load i32, i32* %2, align 4
  %89 = sub nsw i32 %88, 1
  %90 = icmp slt i32 %87, %89
  br i1 %90, label %91, label %107

91:                                               ; preds = %86
  %92 = load i32, i32* %2, align 4
  %93 = sub nsw i32 %92, 1
  %94 = sext i32 %93 to i64
  %95 = getelementptr inbounds i32, i32* %11, i64 %94
  %96 = load i32, i32* %95, align 4
  %97 = load i32, i32* %4, align 4
  %98 = sext i32 %97 to i64
  %99 = getelementptr inbounds i32, i32* %11, i64 %98
  %100 = load i32, i32* %99, align 4
  %101 = icmp eq i32 %96, %100
  br i1 %101, label %102, label %103

102:                                              ; preds = %91
  br label %107

103:                                              ; preds = %91
  br label %104

104:                                              ; preds = %103
  %105 = load i32, i32* %4, align 4
  %106 = add nsw i32 %105, 1
  store i32 %106, i32* %4, align 4
  br label %86

107:                                              ; preds = %102, %86
  %108 = load i32, i32* %2, align 4
  %109 = sub nsw i32 %108, 1
  %110 = load i32, i32* %4, align 4
  %111 = icmp eq i32 %109, %110
  br i1 %111, label %112, label %131

112:                                              ; preds = %107
  %113 = load i32, i32* %2, align 4
  %114 = sub nsw i32 %113, 1
  %115 = sext i32 %114 to i64
  %116 = getelementptr inbounds i32, i32* %11, i64 %115
  %117 = load i32, i32* %116, align 4
  %118 = load i32, i32* %2, align 4
  %119 = sub nsw i32 %118, 2
  %120 = sext i32 %119 to i64
  %121 = getelementptr inbounds i32, i32* %11, i64 %120
  %122 = load i32, i32* %121, align 4
  %123 = icmp ne i32 %117, %122
  br i1 %123, label %124, label %131

124:                                              ; preds = %112
  %125 = load i32, i32* %2, align 4
  %126 = sub nsw i32 %125, 1
  %127 = sext i32 %126 to i64
  %128 = getelementptr inbounds i32, i32* %11, i64 %127
  %129 = load i32, i32* %128, align 4
  %130 = call i32 (i8*, ...) @printf(i8* getelementptr inbounds ([4 x i8], [4 x i8]* @.str.1, i64 0, i64 0), i32 %129)
  br label %131

131:                                              ; preds = %124, %112, %107
  br label %132

132:                                              ; preds = %131, %27
  %133 = call i32 @getchar()
  %134 = call i32 @getchar()
  %135 = load i8*, i8** %5, align 8
  call void @llvm.stackrestore(i8* %135)
  %136 = load i32, i32* %1, align 4
  ret i32 %136
}

declare dso_local i32 @__isoc99_scanf(i8*, ...) #1

; Function Attrs: nounwind
declare i8* @llvm.stacksave() #2

declare dso_local i32 @printf(i8*, ...) #1

declare dso_local i32 @getchar() #1

; Function Attrs: nounwind
declare void @llvm.stackrestore(i8*) #2


!llvm.module.flags = !{!0}
!llvm.ident = !{!1}

!0 = !{i32 1, !"wchar_size", i32 4}
!1 = !{!"clang version 10.0.0-4ubuntu1 "}
